; Function Attrs: nounwind uwtable
define internal fastcc void @ReportGUCOption(ptr noundef captures(none) %0) unnamed_addr #0 {
  %2 = alloca %struct.StringInfoData, align 8
  %3 = tail call ptr @ShowGUCOption(ptr noundef %0, i1 noundef zeroext false)
  %4 = getelementptr inbounds nuw i8, ptr %0, i64 120
  %5 = load ptr, ptr %4, align 8
  %6 = icmp eq ptr %5, null
  br i1 %6, label %9, label %7

7:                                                ; preds = %1
  %8 = tail call i32 @strcmp(ptr noundef nonnull dereferenceable(1) %3, ptr noundef nonnull dereferenceable(1) %5) #30
  %.not = icmp eq i32 %8, 0
  br i1 %.not, label %23, label %9

9:                                                ; preds = %7, %1
  call void @llvm.lifetime.start.p0(i64 24, ptr nonnull %2) #29
  call void @pq_beginmessage(ptr noundef nonnull %2, i8 noundef signext 83) #29
  %10 = load ptr, ptr %0, align 8
  call void @pq_sendstring(ptr noundef nonnull %2, ptr noundef %10) #29
  call void @pq_sendstring(ptr noundef nonnull %2, ptr noundef %3) #29
  call void @pq_endmessage(ptr noundef nonnull %2) #29
  %11 = load ptr, ptr %4, align 8
  %.not.i = icmp eq ptr %11, null
  br i1 %.not.i, label %guc_free.exit, label %12

12:                                               ; preds = %9
  call void @pfree(ptr noundef nonnull %11) #29
  br label %guc_free.exit

guc_free.exit:                                    ; preds = %9, %12
  %13 = call i64 @strlen(ptr noundef nonnull readonly dereferenceable(1) %3) #30
  %14 = add i64 %13, 1
  %15 = load ptr, ptr @GUCMemoryContext, align 8
  %16 = call ptr @MemoryContextAllocExtended(ptr noundef %15, i64 noundef %14, i32 noundef 2) #29
  %17 = icmp eq ptr %16, null
  br i1 %17, label %18, label %guc_malloc.exit.i, !prof !16

18:                                               ; preds = %guc_free.exit
  %19 = call zeroext i1 @errstart(i32 noundef 15, ptr noundef null) #29
  br i1 %19, label %20, label %guc_strdup.exit

20:                                               ; preds = %18
  %21 = call i32 @errcode(i32 noundef 8389) #29
  %22 = call i32 (ptr, ...) @errmsg(ptr noundef nonnull @.str.14) #29
  call void @errfinish(ptr noundef nonnull @.str.3, i32 noundef 647, ptr noundef nonnull @__func__.guc_malloc) #29
  br label %guc_strdup.exit

guc_malloc.exit.i:                                ; preds = %guc_free.exit
  call void @llvm.memcpy.p0.p0.i64(ptr nonnull align 1 %16, ptr nonnull readonly align 1 %3, i64 %14, i1 false)
  br label %guc_strdup.exit

guc_strdup.exit:                                  ; preds = %18, %20, %guc_malloc.exit.i
  store ptr %16, ptr %4, align 8
  call void @llvm.lifetime.end.p0(i64 24, ptr nonnull %2) #29
  br label %23

23:                                               ; preds = %guc_strdup.exit, %7
  call void @pfree(ptr noundef nonnull %3) #29
  ret void
}